target datalayout = "e-m:e-p270:32:32-p271:32:32-p272:64:64-i64:64-i128:128-f80:128-n8:16:32:64-S128"
target triple = "x86_64-pc-linux-gnu"

%struct.PyType_Slot = type { i32, ptr }
%struct.PyType_Spec = type { ptr, i32, i32, i32, ptr }

@.str.9 = private unnamed_addr constant [3 x i8] c"ii\00", align 1
@.str.10 = private unnamed_addr constant [15 x i8] c"_testcapi.Base\00", align 1
@empty_slots = internal global [1 x %struct.PyType_Slot] zeroinitializer, align 16
@.str.11 = private unnamed_addr constant [14 x i8] c"_testcapi.Sub\00", align 1
@.str.12 = private unnamed_addr constant [7 x i8] c"OOOKnn\00", align 1

; Function Attrs: inlinehint nounwind uwtable
define internal void @Py_DECREF(ptr noundef %0) #3 {
  %2 = alloca ptr, align 8
  store ptr %0, ptr %2, align 8, !tbaa !3
  %3 = load ptr, ptr %2, align 8, !tbaa !3
  call void @_Py_DecRef(ptr noundef %3)
  ret void
}

; Function Attrs: inlinehint nounwind uwtable
define internal void @Py_XDECREF(ptr noundef %0) #3 {
  %2 = alloca ptr, align 8
  store ptr %0, ptr %2, align 8, !tbaa !3
  %3 = load ptr, ptr %2, align 8, !tbaa !3
  %4 = icmp ne ptr %3, null
  br i1 %4, label %5, label %7

5:                                                ; preds = %1
  %6 = load ptr, ptr %2, align 8, !tbaa !3
  call void @Py_DECREF(ptr noundef %6)
  br label %7

7:                                                ; preds = %5, %1
  ret void
}

; Function Attrs: nounwind uwtable
define internal ptr @make_sized_heaptypes(ptr noundef %0, ptr noundef %1) #0 {
  %3 = alloca ptr, align 8
  %4 = alloca ptr, align 8
  %5 = alloca ptr, align 8
  %6 = alloca ptr, align 8
  %7 = alloca ptr, align 8
  %8 = alloca ptr, align 8
  %9 = alloca i32, align 4
  %10 = alloca i32, align 4
  %11 = alloca i32, align 4
  %12 = alloca %struct.PyType_Spec, align 8
  %13 = alloca %struct.PyType_Spec, align 8
  %14 = alloca ptr, align 8
  %15 = alloca i64, align 8
  store ptr %0, ptr %3, align 8, !tbaa !3
  store ptr %1, ptr %4, align 8, !tbaa !3
  call void @llvm.lifetime.start.p0(i64 8, ptr %5) #7
  store ptr null, ptr %5, align 8, !tbaa !3
  call void @llvm.lifetime.start.p0(i64 8, ptr %6) #7
  store ptr null, ptr %6, align 8, !tbaa !3
  call void @llvm.lifetime.start.p0(i64 8, ptr %7) #7
  store ptr null, ptr %7, align 8, !tbaa !3
  call void @llvm.lifetime.start.p0(i64 8, ptr %8) #7
  store ptr null, ptr %8, align 8, !tbaa !3
  call void @llvm.lifetime.start.p0(i64 4, ptr %9) #7
  call void @llvm.lifetime.start.p0(i64 4, ptr %10) #7
  call void @llvm.lifetime.start.p0(i64 4, ptr %11) #7
  %16 = load ptr, ptr %4, align 8, !tbaa !3
  %17 = call i32 (ptr, ptr, ...) @PyArg_ParseTuple(ptr noundef %16, ptr noundef @.str.9, ptr noundef %9, ptr noundef %10)
  store i32 %17, ptr %11, align 4, !tbaa !8
  %18 = load i32, ptr %11, align 4, !tbaa !8
  %19 = icmp ne i32 %18, 0
  br i1 %19, label %21, label %20

20:                                               ; preds = %2
  br label %83

21:                                               ; preds = %2
  %22 = getelementptr inbounds nuw %struct.PyType_Spec, ptr %12, i32 0, i32 0
  store ptr @.str.10, ptr %22, align 8, !tbaa !10
  %23 = getelementptr inbounds nuw %struct.PyType_Spec, ptr %12, i32 0, i32 1
  %24 = load i32, ptr %9, align 4, !tbaa !8
  %25 = sext i32 %24 to i64
  %26 = add i64 16, %25
  %27 = trunc i64 %26 to i32
  store i32 %27, ptr %23, align 8, !tbaa !13
  %28 = getelementptr inbounds nuw %struct.PyType_Spec, ptr %12, i32 0, i32 2
  store i32 0, ptr %28, align 4, !tbaa !14
  %29 = getelementptr inbounds nuw %struct.PyType_Spec, ptr %12, i32 0, i32 3
  store i32 1024, ptr %29, align 8, !tbaa !15
  %30 = getelementptr i8, ptr %12, i64 20
  call void @llvm.memset.p0.i64(ptr align 4 %30, i8 0, i64 4, i1 false)
  %31 = getelementptr inbounds nuw %struct.PyType_Spec, ptr %12, i32 0, i32 4
  store ptr @empty_slots, ptr %31, align 8, !tbaa !16
  %32 = getelementptr inbounds nuw %struct.PyType_Spec, ptr %13, i32 0, i32 0
  store ptr @.str.11, ptr %32, align 8, !tbaa !10
  %33 = getelementptr inbounds nuw %struct.PyType_Spec, ptr %13, i32 0, i32 1
  %34 = load i32, ptr %10, align 4, !tbaa !8
  store i32 %34, ptr %33, align 8, !tbaa !13
  %35 = getelementptr inbounds nuw %struct.PyType_Spec, ptr %13, i32 0, i32 2
  store i32 0, ptr %35, align 4, !tbaa !14
  %36 = getelementptr inbounds nuw %struct.PyType_Spec, ptr %13, i32 0, i32 3
  store i32 0, ptr %36, align 8, !tbaa !15
  %37 = getelementptr i8, ptr %13, i64 20
  call void @llvm.memset.p0.i64(ptr align 4 %37, i8 0, i64 4, i1 false)
  %38 = getelementptr inbounds nuw %struct.PyType_Spec, ptr %13, i32 0, i32 4
  store ptr @empty_slots, ptr %38, align 8, !tbaa !16
  %39 = load ptr, ptr %3, align 8, !tbaa !3
  %40 = call ptr @PyType_FromMetaclass(ptr noundef null, ptr noundef %39, ptr noundef %12, ptr noundef null)
  store ptr %40, ptr %5, align 8, !tbaa !3
  %41 = load ptr, ptr %5, align 8, !tbaa !3
  %42 = icmp ne ptr %41, null
  br i1 %42, label %44, label %43

43:                                               ; preds = %21
  br label %83

44:                                               ; preds = %21
  %45 = load ptr, ptr %3, align 8, !tbaa !3
  %46 = load ptr, ptr %5, align 8, !tbaa !3
  %47 = call ptr @PyType_FromMetaclass(ptr noundef null, ptr noundef %45, ptr noundef %13, ptr noundef %46)
  store ptr %47, ptr %6, align 8, !tbaa !3
  %48 = load ptr, ptr %6, align 8, !tbaa !3
  %49 = icmp ne ptr %48, null
  br i1 %49, label %51, label %50

50:                                               ; preds = %44
  br label %83

51:                                               ; preds = %44
  %52 = load ptr, ptr %6, align 8, !tbaa !3
  %53 = call ptr @PyObject_CallNoArgs(ptr noundef %52)
  store ptr %53, ptr %7, align 8, !tbaa !3
  %54 = load ptr, ptr %7, align 8, !tbaa !3
  %55 = icmp ne ptr %54, null
  br i1 %55, label %57, label %56

56:                                               ; preds = %51
  br label %83

57:                                               ; preds = %51
  %58 = load ptr, ptr %7, align 8, !tbaa !3
  %59 = load ptr, ptr %6, align 8, !tbaa !3
  %60 = call ptr @PyObject_GetTypeData(ptr noundef %58, ptr noundef %59)
  store ptr %60, ptr %14, align 8, !tbaa !17
  %61 = load ptr, ptr %14, align 8, !tbaa !17
  %62 = icmp ne ptr %61, null
  br i1 %62, label %64, label %63

63:                                               ; preds = %57
  br label %83

64:                                               ; preds = %57
  %65 = load ptr, ptr %6, align 8, !tbaa !3
  %66 = call i64 @PyType_GetTypeDataSize(ptr noundef %65)
  store i64 %66, ptr %15, align 8, !tbaa !18
  %67 = load i64, ptr %15, align 8, !tbaa !18
  %68 = icmp slt i64 %67, 0
  br i1 %68, label %69, label %70

69:                                               ; preds = %64
  br label %83

70:                                               ; preds = %64
  %71 = load ptr, ptr %5, align 8, !tbaa !3
  %72 = load ptr, ptr %6, align 8, !tbaa !3
  %73 = load ptr, ptr %7, align 8, !tbaa !3
  %74 = load ptr, ptr %14, align 8, !tbaa !17
  %75 = ptrtoint ptr %74 to i64
  %76 = load ptr, ptr %14, align 8, !tbaa !17
  %77 = load ptr, ptr %7, align 8, !tbaa !3
  %78 = ptrtoint ptr %76 to i64
  %79 = ptrtoint ptr %77 to i64
  %80 = sub i64 %78, %79
  %81 = load i64, ptr %15, align 8, !tbaa !18
  %82 = call ptr (ptr, ...) @Py_BuildValue(ptr noundef @.str.12, ptr noundef %71, ptr noundef %72, ptr noundef %73, i64 noundef %75, i64 noundef %80, i64 noundef %81)
  store ptr %82, ptr %8, align 8, !tbaa !3
  br label %83

83:                                               ; preds = %70, %69, %63, %56, %50, %43, %20
  %84 = load ptr, ptr %5, align 8, !tbaa !3
  call void @Py_XDECREF(ptr noundef %84)
  %85 = load ptr, ptr %6, align 8, !tbaa !3
  call void @Py_XDECREF(ptr noundef %85)
  %86 = load ptr, ptr %7, align 8, !tbaa !3
  call void @Py_XDECREF(ptr noundef %86)
  %87 = load ptr, ptr %8, align 8, !tbaa !3
  call void @llvm.lifetime.end.p0(i64 4, ptr %11) #7
  call void @llvm.lifetime.end.p0(i64 4, ptr %10) #7
  call void @llvm.lifetime.end.p0(i64 4, ptr %9) #7
  call void @llvm.lifetime.end.p0(i64 8, ptr %8) #7
  call void @llvm.lifetime.end.p0(i64 8, ptr %7) #7
  call void @llvm.lifetime.end.p0(i64 8, ptr %6) #7
  call void @llvm.lifetime.end.p0(i64 8, ptr %5) #7
  ret ptr %87
}