; Function Attrs: nounwind uwtable
define internal ptr @make_sized_heaptypes(ptr noundef %0, ptr noundef %1) #0 {
  %3 = alloca i32, align 4
  %4 = alloca i32, align 4
  %5 = alloca %struct.PyType_Spec, align 8
  %6 = alloca %struct.PyType_Spec, align 8
  call void @llvm.lifetime.start.p0(i64 4, ptr nonnull %3) #8
  call void @llvm.lifetime.start.p0(i64 4, ptr nonnull %4) #8
  %7 = call i32 (ptr, ptr, ...) @PyArg_ParseTuple(ptr noundef %1, ptr noundef nonnull @.str.9, ptr noundef nonnull %3, ptr noundef nonnull %4) #8
  %.not = icmp eq i32 %7, 0
  br i1 %.not, label %Py_XDECREF.exit41, label %8

8:                                                ; preds = %2
  store ptr @.str.10, ptr %5, align 8, !tbaa !3
  %9 = getelementptr inbounds nuw i8, ptr %5, i64 8
  %10 = load i32, ptr %3, align 4, !tbaa !10
  %11 = add i32 %10, 16
  store i32 %11, ptr %9, align 8, !tbaa !11
  %12 = getelementptr inbounds nuw i8, ptr %5, i64 12
  store i32 0, ptr %12, align 4, !tbaa !12
  %13 = getelementptr inbounds nuw i8, ptr %5, i64 16
  store i32 1024, ptr %13, align 8, !tbaa !13
  %14 = getelementptr inbounds nuw i8, ptr %5, i64 20
  store i32 0, ptr %14, align 4
  %15 = getelementptr inbounds nuw i8, ptr %5, i64 24
  store ptr @empty_slots, ptr %15, align 8, !tbaa !14
  store ptr @.str.11, ptr %6, align 8, !tbaa !3
  %16 = getelementptr inbounds nuw i8, ptr %6, i64 8
  %17 = load i32, ptr %4, align 4, !tbaa !10
  store i32 %17, ptr %16, align 8, !tbaa !11
  %18 = getelementptr inbounds nuw i8, ptr %6, i64 12
  store i32 0, ptr %18, align 4, !tbaa !12
  %19 = getelementptr inbounds nuw i8, ptr %6, i64 16
  store i32 0, ptr %19, align 8, !tbaa !13
  %20 = getelementptr inbounds nuw i8, ptr %6, i64 20
  store i32 0, ptr %20, align 4
  %21 = getelementptr inbounds nuw i8, ptr %6, i64 24
  store ptr @empty_slots, ptr %21, align 8, !tbaa !14
  %22 = call ptr @PyType_FromMetaclass(ptr noundef null, ptr noundef %0, ptr noundef nonnull %5, ptr noundef null) #8
  %.not34 = icmp eq ptr %22, null
  br i1 %.not34, label %Py_XDECREF.exit41, label %23

23:                                               ; preds = %8
  %24 = call ptr @PyType_FromMetaclass(ptr noundef null, ptr noundef %0, ptr noundef nonnull %6, ptr noundef nonnull %22) #8
  %.not35 = icmp eq ptr %24, null
  br i1 %.not35, label %Py_XDECREF.exit41.sink.split, label %25

25:                                               ; preds = %23
  %26 = call ptr @PyObject_CallNoArgs(ptr noundef nonnull %24) #8
  %.not36 = icmp eq ptr %26, null
  br i1 %.not36, label %Py_XDECREF.exit39, label %27

27:                                               ; preds = %25
  %28 = call ptr @PyObject_GetTypeData(ptr noundef nonnull %26, ptr noundef nonnull %24) #8
  %.not37 = icmp eq ptr %28, null
  br i1 %.not37, label %Py_XDECREF.exit39, label %29

29:                                               ; preds = %27
  %30 = call i64 @PyType_GetTypeDataSize(ptr noundef nonnull %24) #8
  %31 = icmp slt i64 %30, 0
  br i1 %31, label %Py_XDECREF.exit39, label %32

32:                                               ; preds = %29
  %33 = ptrtoint ptr %28 to i64
  %34 = ptrtoint ptr %26 to i64
  %35 = sub i64 %33, %34
  %36 = call ptr (ptr, ...) @Py_BuildValue(ptr noundef nonnull @.str.12, ptr noundef nonnull %22, ptr noundef nonnull %24, ptr noundef nonnull %26, i64 noundef %33, i64 noundef %35, i64 noundef %30) #8
  br label %Py_XDECREF.exit39

Py_XDECREF.exit39:                                ; preds = %29, %32, %27, %25
  %.026.ph.ph = phi ptr [ null, %29 ], [ %36, %32 ], [ null, %27 ], [ null, %25 ]
  call void @_Py_DecRef(ptr noundef nonnull %22) #8
  call void @_Py_DecRef(ptr noundef nonnull %24) #8
  br i1 %.not36, label %Py_XDECREF.exit41, label %Py_XDECREF.exit41.sink.split

Py_XDECREF.exit41.sink.split:                     ; preds = %Py_XDECREF.exit39, %23
  %.sink = phi ptr [ %22, %23 ], [ %26, %Py_XDECREF.exit39 ]
  %.026485972.ph = phi ptr [ null, %23 ], [ %.026.ph.ph, %Py_XDECREF.exit39 ]
  call void @_Py_DecRef(ptr noundef nonnull %.sink) #8
  br label %Py_XDECREF.exit41

Py_XDECREF.exit41:                                ; preds = %Py_XDECREF.exit41.sink.split, %2, %8, %Py_XDECREF.exit39
  %.026485972 = phi ptr [ %.026.ph.ph, %Py_XDECREF.exit39 ], [ null, %8 ], [ null, %2 ], [ %.026485972.ph, %Py_XDECREF.exit41.sink.split ]
  call void @llvm.lifetime.end.p0(i64 4, ptr nonnull %4) #8
  call void @llvm.lifetime.end.p0(i64 4, ptr nonnull %3) #8
  ret ptr %.026485972
}